target datalayout = "e-m:e-p270:32:32-p271:32:32-p272:64:64-i64:64-i128:128-f80:128-n8:16:32:64-S128"
target triple = "x86_64-unknown-linux-gnu"

%struct.QEnumLookup = type { ptr, ptr, i32 }
%struct.Chardev = type { %struct.Object, %struct.QemuMutex, ptr, ptr, ptr, i32, i32, i8, ptr, ptr, [1 x i64] }
%struct.Object = type { ptr, ptr, ptr, i32, ptr }
%struct.QemuMutex = type { %union.pthread_mutex_t, i8 }
%union.pthread_mutex_t = type { %struct.__pthread_mutex_s }
%struct.__pthread_mutex_s = type { i32, i32, i32, i32, i32, i16, i16, %struct.__pthread_internal_list }
%struct.__pthread_internal_list = type { ptr, ptr }
%struct.ChardevClass = type { %struct.ObjectClass, i8, i8, ptr, ptr, ptr, ptr, ptr, ptr, ptr, ptr, ptr, ptr, ptr, ptr, ptr, ptr, ptr, ptr }
%struct.ObjectClass = type { ptr, ptr, [4 x ptr], [4 x ptr], ptr, ptr }
%struct.CharBackend = type { ptr, ptr, ptr, ptr, ptr, ptr, i32, i32 }
%struct.ChardevBackend = type { i32, %union.anon }
%union.anon = type { %struct.ChardevFileWrapper }
%struct.ChardevFileWrapper = type { ptr }
%struct.ChardevReturn = type { ptr }

@.str = private unnamed_addr constant [10 x i8] c"/chardevs\00", align 1
@.str.2 = private unnamed_addr constant [23 x i8] c"../qemu/chardev/char.c\00", align 1
@.str.4 = private unnamed_addr constant [8 x i8] c"chardev\00", align 1
@error_abort = external global ptr, align 8
@.str.66 = private unnamed_addr constant [12 x i8] c"chardev-mux\00", align 1
@ChardevBackendKind_lookup = external constant %struct.QEnumLookup, align 8
@.str.91 = private unnamed_addr constant [12 x i8] c"chardev-pty\00", align 1
@__func__.qmp_chardev_change = private unnamed_addr constant [19 x i8] c"qmp_chardev_change\00", align 1
@.str.93 = private unnamed_addr constant [28 x i8] c"Chardev '%s' does not exist\00", align 1
@.str.94 = private unnamed_addr constant [37 x i8] c"Mux device hotswap not supported yet\00", align 1
@.str.95 = private unnamed_addr constant [53 x i8] c"Chardev '%s' cannot be changed in record/replay mode\00", align 1
@.str.96 = private unnamed_addr constant [46 x i8] c"Chardev user does not support chardev hotswap\00", align 1
@.str.97 = private unnamed_addr constant [27 x i8] c"Chardev '%s' change failed\00", align 1
@.str.104 = private unnamed_addr constant [101 x i8] c"/home/dtcxzyw/WorkSpace/Projects/compilers/llvm-opt-benchmark/bench/qemu/qemu/include/chardev/char.h\00", align 1
@__func__.CHARDEV_GET_CLASS = private unnamed_addr constant [18 x i8] c"CHARDEV_GET_CLASS\00", align 1
@__func__.CHARDEV = private unnamed_addr constant [8 x i8] c"CHARDEV\00", align 1

; Function Attrs: nounwind sspstrong uwtable
define internal i32 @test_bit(i64 noundef %nr, ptr noundef %addr) #0 {
entry:
  %nr.addr = alloca i64, align 8
  %addr.addr = alloca ptr, align 8
  store i64 %nr, ptr %nr.addr, align 8
  store ptr %addr, ptr %addr.addr, align 8
  %0 = load ptr, ptr %addr.addr, align 8
  %1 = load i64, ptr %nr.addr, align 8
  %div = udiv i64 %1, 64
  %arrayidx = getelementptr i64, ptr %0, i64 %div
  %2 = load i64, ptr %arrayidx, align 8
  %3 = load i64, ptr %nr.addr, align 8
  %and = and i64 %3, 63
  %shr = lshr i64 %2, %and
  %and1 = and i64 1, %shr
  %conv = trunc i64 %and1 to i32
  ret i32 %conv
}

; Function Attrs: nounwind sspstrong uwtable
define internal ptr @CHARDEV(ptr noundef %obj) #0 {
entry:
  %obj.addr = alloca ptr, align 8
  store ptr %obj, ptr %obj.addr, align 8
  %0 = load ptr, ptr %obj.addr, align 8
  %call = call ptr @object_dynamic_cast_assert(ptr noundef %0, ptr noundef @.str.4, ptr noundef @.str.104, i32 noundef 231, ptr noundef @__func__.CHARDEV)
  ret ptr %call
}

; Function Attrs: nounwind sspstrong uwtable
define dso_local ptr @get_chardevs_root() #0 {
entry:
  %call = call ptr @object_get_root()
  %call1 = call ptr @container_get(ptr noundef %call, ptr noundef @.str)
  ret ptr %call1
}

; Function Attrs: nounwind sspstrong uwtable
define internal ptr @CHARDEV_GET_CLASS(ptr noundef %obj) #0 {
entry:
  %obj.addr = alloca ptr, align 8
  store ptr %obj, ptr %obj.addr, align 8
  %0 = load ptr, ptr %obj.addr, align 8
  %call = call ptr @object_get_class(ptr noundef %0)
  %call1 = call ptr @object_class_dynamic_cast_assert(ptr noundef %call, ptr noundef @.str.4, ptr noundef @.str.104, i32 noundef 231, ptr noundef @__func__.CHARDEV_GET_CLASS)
  ret ptr %call1
}

; Function Attrs: nounwind sspstrong uwtable
define dso_local zeroext i1 @qemu_chr_has_feature(ptr noundef %chr, i32 noundef %feature) #0 {
entry:
  %chr.addr = alloca ptr, align 8
  %feature.addr = alloca i32, align 4
  store ptr %chr, ptr %chr.addr, align 8
  store i32 %feature, ptr %feature.addr, align 4
  %0 = load i32, ptr %feature.addr, align 4
  %conv = zext i32 %0 to i64
  %1 = load ptr, ptr %chr.addr, align 8
  %features = getelementptr inbounds %struct.Chardev, ptr %1, i32 0, i32 10
  %arraydecay = getelementptr inbounds [1 x i64], ptr %features, i64 0, i64 0
  %call = call i32 @test_bit(i64 noundef %conv, ptr noundef %arraydecay)
  %tobool = icmp ne i32 %call, 0
  ret i1 %tobool
}

; Function Attrs: nounwind sspstrong uwtable
define dso_local ptr @qemu_chr_find(ptr noundef %name) #0 {
entry:
  %name.addr = alloca ptr, align 8
  %obj = alloca ptr, align 8
  store ptr %name, ptr %name.addr, align 8
  %call = call ptr @get_chardevs_root()
  %0 = load ptr, ptr %name.addr, align 8
  %call1 = call ptr @object_resolve_path_component(ptr noundef %call, ptr noundef %0)
  store ptr %call1, ptr %obj, align 8
  %1 = load ptr, ptr %obj, align 8
  %tobool = icmp ne ptr %1, null
  br i1 %tobool, label %cond.true, label %cond.false

cond.true:                                        ; preds = %entry
  %2 = load ptr, ptr %obj, align 8
  %call2 = call ptr @CHARDEV(ptr noundef %2)
  br label %cond.end

cond.false:                                       ; preds = %entry
  br label %cond.end

cond.end:                                         ; preds = %cond.false, %cond.true
  %cond = phi ptr [ %call2, %cond.true ], [ null, %cond.false ]
  ret ptr %cond
}

; Function Attrs: nounwind sspstrong uwtable
define dso_local ptr @qmp_chardev_change(ptr noundef %id, ptr noundef %backend, ptr noundef %errp) #0 {
entry:
  %retval = alloca ptr, align 8
  %id.addr = alloca ptr, align 8
  %backend.addr = alloca ptr, align 8
  %errp.addr = alloca ptr, align 8
  %be = alloca ptr, align 8
  %cc = alloca ptr, align 8
  %cc_new = alloca ptr, align 8
  %chr = alloca ptr, align 8
  %chr_new = alloca ptr, align 8
  %closed_sent = alloca i8, align 1
  %handover_yank_instance = alloca i8, align 1
  %ret = alloca ptr, align 8
  store ptr %id, ptr %id.addr, align 8
  store ptr %backend, ptr %backend.addr, align 8
  store ptr %errp, ptr %errp.addr, align 8
  store i8 0, ptr %closed_sent, align 1
  %0 = load ptr, ptr %id.addr, align 8
  %call = call ptr @qemu_chr_find(ptr noundef %0)
  store ptr %call, ptr %chr, align 8
  %1 = load ptr, ptr %chr, align 8
  %tobool = icmp ne ptr %1, null
  br i1 %tobool, label %if.end, label %if.then

if.then:                                          ; preds = %entry
  %2 = load ptr, ptr %errp.addr, align 8
  %3 = load ptr, ptr %id.addr, align 8
  call void (ptr, ptr, i32, ptr, ptr, ...) @error_setg_internal(ptr noundef %2, ptr noundef @.str.2, i32 noundef 1054, ptr noundef @__func__.qmp_chardev_change, ptr noundef @.str.93, ptr noundef %3)
  store ptr null, ptr %retval, align 8
  br label %return

if.end:                                           ; preds = %entry
  %4 = load ptr, ptr %chr, align 8
  %call1 = call ptr @object_dynamic_cast(ptr noundef %4, ptr noundef @.str.66)
  %tobool2 = icmp ne ptr %call1, null
  br i1 %tobool2, label %if.then3, label %if.end4

if.then3:                                         ; preds = %if.end
  %5 = load ptr, ptr %errp.addr, align 8
  call void (ptr, ptr, i32, ptr, ptr, ...) @error_setg_internal(ptr noundef %5, ptr noundef @.str.2, i32 noundef 1059, ptr noundef @__func__.qmp_chardev_change, ptr noundef @.str.94)
  store ptr null, ptr %retval, align 8
  br label %return

if.end4:                                          ; preds = %if.end
  %6 = load ptr, ptr %chr, align 8
  %call5 = call zeroext i1 @qemu_chr_has_feature(ptr noundef %6, i32 noundef 2)
  br i1 %call5, label %if.then6, label %if.end7

if.then6:                                         ; preds = %if.end4
  %7 = load ptr, ptr %errp.addr, align 8
  %8 = load ptr, ptr %id.addr, align 8
  call void (ptr, ptr, i32, ptr, ptr, ...) @error_setg_internal(ptr noundef %7, ptr noundef @.str.2, i32 noundef 1065, ptr noundef @__func__.qmp_chardev_change, ptr noundef @.str.95, ptr noundef %8)
  store ptr null, ptr %retval, align 8
  br label %return

if.end7:                                          ; preds = %if.end4
  %9 = load ptr, ptr %chr, align 8
  %be8 = getelementptr inbounds %struct.Chardev, ptr %9, i32 0, i32 2
  %10 = load ptr, ptr %be8, align 8
  store ptr %10, ptr %be, align 8
  %11 = load ptr, ptr %be, align 8
  %tobool9 = icmp ne ptr %11, null
  br i1 %tobool9, label %if.end12, label %if.then10

if.then10:                                        ; preds = %if.end7
  %12 = load ptr, ptr %chr, align 8
  call void @object_unparent(ptr noundef %12)
  %13 = load ptr, ptr %id.addr, align 8
  %14 = load ptr, ptr %backend.addr, align 8
  %15 = load ptr, ptr %errp.addr, align 8
  %call11 = call ptr @qmp_chardev_add(ptr noundef %13, ptr noundef %14, ptr noundef %15)
  store ptr %call11, ptr %retval, align 8
  br label %return

if.end12:                                         ; preds = %if.end7
  %16 = load ptr, ptr %be, align 8
  %chr_be_change = getelementptr inbounds %struct.CharBackend, ptr %16, i32 0, i32 4
  %17 = load ptr, ptr %chr_be_change, align 8
  %tobool13 = icmp ne ptr %17, null
  br i1 %tobool13, label %if.end15, label %if.then14

if.then14:                                        ; preds = %if.end12
  %18 = load ptr, ptr %errp.addr, align 8
  call void (ptr, ptr, i32, ptr, ptr, ...) @error_setg_internal(ptr noundef %18, ptr noundef @.str.2, i32 noundef 1077, ptr noundef @__func__.qmp_chardev_change, ptr noundef @.str.96)
  store ptr null, ptr %retval, align 8
  br label %return

if.end15:                                         ; preds = %if.end12
  %19 = load ptr, ptr %chr, align 8
  %call16 = call ptr @CHARDEV_GET_CLASS(ptr noundef %19)
  store ptr %call16, ptr %cc, align 8
  %20 = load ptr, ptr %backend.addr, align 8
  %type = getelementptr inbounds %struct.ChardevBackend, ptr %20, i32 0, i32 0
  %21 = load i32, ptr %type, align 8
  %call17 = call ptr @qapi_enum_lookup(ptr noundef @ChardevBackendKind_lookup, i32 noundef %21)
  %22 = load ptr, ptr %errp.addr, align 8
  %call18 = call ptr @char_get_class(ptr noundef %call17, ptr noundef %22)
  store ptr %call18, ptr %cc_new, align 8
  %23 = load ptr, ptr %cc_new, align 8
  %tobool19 = icmp ne ptr %23, null
  br i1 %tobool19, label %if.end21, label %if.then20

if.then20:                                        ; preds = %if.end15
  store ptr null, ptr %retval, align 8
  br label %return

if.end21:                                         ; preds = %if.end15
  %24 = load ptr, ptr %cc, align 8
  %supports_yank = getelementptr inbounds %struct.ChardevClass, ptr %24, i32 0, i32 2
  %25 = load i8, ptr %supports_yank, align 1
  %tobool22 = trunc i8 %25 to i1
  br i1 %tobool22, label %land.rhs, label %land.end

land.rhs:                                         ; preds = %if.end21
  %26 = load ptr, ptr %cc_new, align 8
  %supports_yank23 = getelementptr inbounds %struct.ChardevClass, ptr %26, i32 0, i32 2
  %27 = load i8, ptr %supports_yank23, align 1
  %tobool24 = trunc i8 %27 to i1
  br label %land.end

land.end:                                         ; preds = %land.rhs, %if.end21
  %28 = phi i1 [ false, %if.end21 ], [ %tobool24, %land.rhs ]
  %frombool = zext i1 %28 to i8
  store i8 %frombool, ptr %handover_yank_instance, align 1
  %29 = load ptr, ptr %id.addr, align 8
  %30 = load ptr, ptr %cc_new, align 8
  %call25 = call ptr @object_class_get_name(ptr noundef %30)
  %31 = load ptr, ptr %backend.addr, align 8
  %32 = load ptr, ptr %chr, align 8
  %gcontext = getelementptr inbounds %struct.Chardev, ptr %32, i32 0, i32 9
  %33 = load ptr, ptr %gcontext, align 8
  %34 = load i8, ptr %handover_yank_instance, align 1
  %tobool26 = trunc i8 %34 to i1
  %35 = load ptr, ptr %errp.addr, align 8
  %call27 = call ptr @chardev_new(ptr noundef %29, ptr noundef %call25, ptr noundef %31, ptr noundef %33, i1 noundef zeroext %tobool26, ptr noundef %35)
  store ptr %call27, ptr %chr_new, align 8
  %36 = load ptr, ptr %chr_new, align 8
  %tobool28 = icmp ne ptr %36, null
  br i1 %tobool28, label %if.end30, label %if.then29

if.then29:                                        ; preds = %land.end
  store ptr null, ptr %retval, align 8
  br label %return

if.end30:                                         ; preds = %land.end
  %37 = load ptr, ptr %chr, align 8
  %be_open = getelementptr inbounds %struct.Chardev, ptr %37, i32 0, i32 6
  %38 = load i32, ptr %be_open, align 4
  %tobool31 = icmp ne i32 %38, 0
  br i1 %tobool31, label %land.lhs.true, label %if.end35

land.lhs.true:                                    ; preds = %if.end30
  %39 = load ptr, ptr %chr_new, align 8
  %be_open32 = getelementptr inbounds %struct.Chardev, ptr %39, i32 0, i32 6
  %40 = load i32, ptr %be_open32, align 4
  %tobool33 = icmp ne i32 %40, 0
  br i1 %tobool33, label %if.end35, label %if.then34

if.then34:                                        ; preds = %land.lhs.true
  %41 = load ptr, ptr %chr, align 8
  call void @qemu_chr_be_event(ptr noundef %41, i32 noundef 4)
  store i8 1, ptr %closed_sent, align 1
  br label %if.end35

if.end35:                                         ; preds = %if.then34, %land.lhs.true, %if.end30
  %42 = load ptr, ptr %chr, align 8
  %be36 = getelementptr inbounds %struct.Chardev, ptr %42, i32 0, i32 2
  store ptr null, ptr %be36, align 8
  %43 = load ptr, ptr %be, align 8
  %44 = load ptr, ptr %chr_new, align 8
  %call37 = call zeroext i1 @qemu_chr_fe_init(ptr noundef %43, ptr noundef %44, ptr noundef @error_abort)
  %45 = load ptr, ptr %be, align 8
  %chr_be_change38 = getelementptr inbounds %struct.CharBackend, ptr %45, i32 0, i32 4
  %46 = load ptr, ptr %chr_be_change38, align 8
  %47 = load ptr, ptr %be, align 8
  %opaque = getelementptr inbounds %struct.CharBackend, ptr %47, i32 0, i32 5
  %48 = load ptr, ptr %opaque, align 8
  %call39 = call i32 %46(ptr noundef %48)
  %cmp = icmp slt i32 %call39, 0
  br i1 %cmp, label %if.then40, label %if.end46

if.then40:                                        ; preds = %if.end35
  %49 = load ptr, ptr %errp.addr, align 8
  %50 = load ptr, ptr %chr_new, align 8
  %label = getelementptr inbounds %struct.Chardev, ptr %50, i32 0, i32 3
  %51 = load ptr, ptr %label, align 8
  call void (ptr, ptr, i32, ptr, ptr, ...) @error_setg_internal(ptr noundef %49, ptr noundef @.str.2, i32 noundef 1108, ptr noundef @__func__.qmp_chardev_change, ptr noundef @.str.97, ptr noundef %51)
  %52 = load ptr, ptr %chr_new, align 8
  %be41 = getelementptr inbounds %struct.Chardev, ptr %52, i32 0, i32 2
  store ptr null, ptr %be41, align 8
  %53 = load ptr, ptr %be, align 8
  %54 = load ptr, ptr %chr, align 8
  %call42 = call zeroext i1 @qemu_chr_fe_init(ptr noundef %53, ptr noundef %54, ptr noundef @error_abort)
  %55 = load i8, ptr %closed_sent, align 1
  %tobool43 = trunc i8 %55 to i1
  br i1 %tobool43, label %if.then44, label %if.end45

if.then44:                                        ; preds = %if.then40
  %56 = load ptr, ptr %chr, align 8
  call void @qemu_chr_be_event(ptr noundef %56, i32 noundef 1)
  br label %if.end45

if.end45:                                         ; preds = %if.then44, %if.then40
  %57 = load ptr, ptr %chr_new, align 8
  call void @object_unref(ptr noundef %57)
  store ptr null, ptr %retval, align 8
  br label %return

if.end46:                                         ; preds = %if.end35
  %58 = load ptr, ptr %chr_new, align 8
  %handover_yank_instance47 = getelementptr inbounds %struct.Chardev, ptr %58, i32 0, i32 7
  store i8 0, ptr %handover_yank_instance47, align 8
  %59 = load i8, ptr %handover_yank_instance, align 1
  %tobool48 = trunc i8 %59 to i1
  %60 = load ptr, ptr %chr, align 8
  %handover_yank_instance49 = getelementptr inbounds %struct.Chardev, ptr %60, i32 0, i32 7
  %frombool50 = zext i1 %tobool48 to i8
  store i8 %frombool50, ptr %handover_yank_instance49, align 8
  %61 = load ptr, ptr %chr, align 8
  call void @object_unparent(ptr noundef %61)
  %call51 = call ptr @get_chardevs_root()
  %62 = load ptr, ptr %chr_new, align 8
  %label52 = getelementptr inbounds %struct.Chardev, ptr %62, i32 0, i32 3
  %63 = load ptr, ptr %label52, align 8
  %64 = load ptr, ptr %chr_new, align 8
  %call53 = call ptr @object_property_add_child(ptr noundef %call51, ptr noundef %63, ptr noundef %64)
  %65 = load ptr, ptr %chr_new, align 8
  call void @object_unref(ptr noundef %65)
  %call54 = call noalias ptr @g_malloc0_n(i64 noundef 1, i64 noundef 8) #15
  store ptr %call54, ptr %ret, align 8
  %66 = load ptr, ptr %chr_new, align 8
  %call55 = call ptr @object_dynamic_cast(ptr noundef %66, ptr noundef @.str.91)
  %tobool56 = icmp ne ptr %call55, null
  br i1 %tobool56, label %if.then57, label %if.end59

if.then57:                                        ; preds = %if.end46
  %67 = load ptr, ptr %chr_new, align 8
  %filename = getelementptr inbounds %struct.Chardev, ptr %67, i32 0, i32 4
  %68 = load ptr, ptr %filename, align 8
  %add.ptr = getelementptr i8, ptr %68, i64 4
  %call58 = call noalias ptr @g_strdup(ptr noundef %add.ptr)
  %69 = load ptr, ptr %ret, align 8
  %pty = getelementptr inbounds %struct.ChardevReturn, ptr %69, i32 0, i32 0
  store ptr %call58, ptr %pty, align 8
  br label %if.end59

if.end59:                                         ; preds = %if.then57, %if.end46
  %70 = load ptr, ptr %ret, align 8
  store ptr %70, ptr %retval, align 8
  br label %return

return:                                           ; preds = %if.end59, %if.end45, %if.then29, %if.then20, %if.then14, %if.then10, %if.then6, %if.then3, %if.then
  %71 = load ptr, ptr %retval, align 8
  ret ptr %71
}