; Function Attrs: nounwind sspstrong uwtable
define dso_local noundef ptr @qmp_chardev_change(ptr noundef %id, ptr noundef %backend, ptr noundef %errp) local_unnamed_addr #0 {
entry:
  %call.i.i = tail call ptr @object_get_root() #13
  %call1.i.i = tail call ptr @container_get(ptr noundef %call.i.i, ptr noundef nonnull @.str) #13
  %call1.i = tail call ptr @object_resolve_path_component(ptr noundef %call1.i.i, ptr noundef %id) #13
  %tobool.not.i = icmp eq ptr %call1.i, null
  br i1 %tobool.not.i, label %if.then, label %qemu_chr_find.exit

qemu_chr_find.exit:                               ; preds = %entry
  %call.i2.i = tail call ptr @object_dynamic_cast_assert(ptr noundef nonnull %call1.i, ptr noundef nonnull @.str.4, ptr noundef nonnull @.str.104, i32 noundef 231, ptr noundef nonnull @__func__.CHARDEV) #13
  %tobool.not = icmp eq ptr %call.i2.i, null
  br i1 %tobool.not, label %if.then, label %if.end

if.then:                                          ; preds = %entry, %qemu_chr_find.exit
  tail call void (ptr, ptr, i32, ptr, ptr, ...) @error_setg_internal(ptr noundef %errp, ptr noundef nonnull @.str.2, i32 noundef 1054, ptr noundef nonnull @__func__.qmp_chardev_change, ptr noundef nonnull @.str.93, ptr noundef %id) #13
  br label %return

if.end:                                           ; preds = %qemu_chr_find.exit
  %call1 = tail call ptr @object_dynamic_cast(ptr noundef nonnull %call.i2.i, ptr noundef nonnull @.str.66) #13
  %tobool2.not = icmp eq ptr %call1, null
  br i1 %tobool2.not, label %if.end4, label %if.then3

if.then3:                                         ; preds = %if.end
  tail call void (ptr, ptr, i32, ptr, ptr, ...) @error_setg_internal(ptr noundef %errp, ptr noundef nonnull @.str.2, i32 noundef 1059, ptr noundef nonnull @__func__.qmp_chardev_change, ptr noundef nonnull @.str.94) #13
  br label %return

if.end4:                                          ; preds = %if.end
  %features.i = getelementptr inbounds nuw i8, ptr %call.i2.i, i64 144
  %0 = load i64, ptr %features.i, align 8
  %1 = and i64 %0, 4
  %tobool.i.not = icmp eq i64 %1, 0
  br i1 %tobool.i.not, label %if.end7, label %if.then6

if.then6:                                         ; preds = %if.end4
  tail call void (ptr, ptr, i32, ptr, ptr, ...) @error_setg_internal(ptr noundef %errp, ptr noundef nonnull @.str.2, i32 noundef 1065, ptr noundef nonnull @__func__.qmp_chardev_change, ptr noundef nonnull @.str.95, ptr noundef %id) #13
  br label %return

if.end7:                                          ; preds = %if.end4
  %be8 = getelementptr inbounds nuw i8, ptr %call.i2.i, i64 88
  %2 = load ptr, ptr %be8, align 8
  %tobool9.not = icmp eq ptr %2, null
  br i1 %tobool9.not, label %if.then10, label %if.end12

if.then10:                                        ; preds = %if.end7
  tail call void @object_unparent(ptr noundef nonnull %call.i2.i) #13
  %call11 = tail call ptr @qmp_chardev_add(ptr noundef %id, ptr noundef %backend, ptr noundef %errp)
  br label %return

if.end12:                                         ; preds = %if.end7
  %chr_be_change = getelementptr inbounds nuw i8, ptr %2, i64 32
  %3 = load ptr, ptr %chr_be_change, align 8
  %tobool13.not = icmp eq ptr %3, null
  br i1 %tobool13.not, label %if.then14, label %if.end15

if.then14:                                        ; preds = %if.end12
  tail call void (ptr, ptr, i32, ptr, ptr, ...) @error_setg_internal(ptr noundef %errp, ptr noundef nonnull @.str.2, i32 noundef 1077, ptr noundef nonnull @__func__.qmp_chardev_change, ptr noundef nonnull @.str.96) #13
  br label %return

if.end15:                                         ; preds = %if.end12
  %call.i = tail call ptr @object_get_class(ptr noundef nonnull %call.i2.i) #13
  %call1.i47 = tail call ptr @object_class_dynamic_cast_assert(ptr noundef %call.i, ptr noundef nonnull @.str.4, ptr noundef nonnull @.str.104, i32 noundef 231, ptr noundef nonnull @__func__.CHARDEV_GET_CLASS) #13
  %4 = load i32, ptr %backend, align 8
  %call17 = tail call ptr @qapi_enum_lookup(ptr noundef nonnull @ChardevBackendKind_lookup, i32 noundef %4) #13
  %call18 = tail call fastcc ptr @char_get_class(ptr noundef %call17, ptr noundef %errp)
  %tobool19.not = icmp eq ptr %call18, null
  br i1 %tobool19.not, label %return, label %if.end21

if.end21:                                         ; preds = %if.end15
  %supports_yank = getelementptr inbounds nuw i8, ptr %call1.i47, i64 97
  %5 = load i8, ptr %supports_yank, align 1
  %tobool22 = trunc i8 %5 to i1
  br i1 %tobool22, label %land.rhs, label %land.end

land.rhs:                                         ; preds = %if.end21
  %supports_yank23 = getelementptr inbounds nuw i8, ptr %call18, i64 97
  %6 = load i8, ptr %supports_yank23, align 1
  %tobool24 = trunc i8 %6 to i1
  br label %land.end

land.end:                                         ; preds = %land.rhs, %if.end21
  %7 = phi i1 [ false, %if.end21 ], [ %tobool24, %land.rhs ]
  %frombool = zext i1 %7 to i8
  %call25 = tail call ptr @object_class_get_name(ptr noundef nonnull %call18) #13
  %gcontext = getelementptr inbounds nuw i8, ptr %call.i2.i, i64 136
  %8 = load ptr, ptr %gcontext, align 8
  %call27 = tail call fastcc ptr @chardev_new(ptr noundef %id, ptr noundef %call25, ptr noundef nonnull %backend, ptr noundef %8, i1 noundef zeroext %7, ptr noundef %errp)
  %tobool28.not = icmp eq ptr %call27, null
  br i1 %tobool28.not, label %return, label %if.end30

if.end30:                                         ; preds = %land.end
  %be_open = getelementptr inbounds nuw i8, ptr %call.i2.i, i64 116
  %9 = load i32, ptr %be_open, align 4
  %tobool31.not = icmp eq i32 %9, 0
  br i1 %tobool31.not, label %if.end35, label %land.lhs.true

land.lhs.true:                                    ; preds = %if.end30
  %be_open32 = getelementptr inbounds nuw i8, ptr %call27, i64 116
  %10 = load i32, ptr %be_open32, align 4
  %tobool33.not = icmp eq i32 %10, 0
  br i1 %tobool33.not, label %if.then34, label %if.end35

if.then34:                                        ; preds = %land.lhs.true
  tail call void @qemu_chr_be_event(ptr noundef nonnull %call.i2.i, i32 noundef 4)
  br label %if.end35

if.end35:                                         ; preds = %if.then34, %land.lhs.true, %if.end30
  %closed_sent.0 = phi i1 [ false, %land.lhs.true ], [ true, %if.then34 ], [ false, %if.end30 ]
  store ptr null, ptr %be8, align 8
  %call37 = tail call zeroext i1 @qemu_chr_fe_init(ptr noundef nonnull %2, ptr noundef nonnull %call27, ptr noundef nonnull @error_abort) #13
  %11 = load ptr, ptr %chr_be_change, align 8
  %opaque = getelementptr inbounds nuw i8, ptr %2, i64 40
  %12 = load ptr, ptr %opaque, align 8
  %call39 = tail call i32 %11(ptr noundef %12) #13
  %cmp = icmp slt i32 %call39, 0
  br i1 %cmp, label %if.then40, label %if.end46

if.then40:                                        ; preds = %if.end35
  %label = getelementptr inbounds nuw i8, ptr %call27, i64 96
  %13 = load ptr, ptr %label, align 8
  tail call void (ptr, ptr, i32, ptr, ptr, ...) @error_setg_internal(ptr noundef %errp, ptr noundef nonnull @.str.2, i32 noundef 1108, ptr noundef nonnull @__func__.qmp_chardev_change, ptr noundef nonnull @.str.97, ptr noundef %13) #13
  %be41 = getelementptr inbounds nuw i8, ptr %call27, i64 88
  store ptr null, ptr %be41, align 8
  %call42 = tail call zeroext i1 @qemu_chr_fe_init(ptr noundef nonnull %2, ptr noundef nonnull %call.i2.i, ptr noundef nonnull @error_abort) #13
  br i1 %closed_sent.0, label %if.then44, label %if.end45

if.then44:                                        ; preds = %if.then40
  tail call void @qemu_chr_be_event(ptr noundef nonnull %call.i2.i, i32 noundef 1)
  br label %if.end45

if.end45:                                         ; preds = %if.then44, %if.then40
  tail call void @object_unref(ptr noundef nonnull %call27) #13
  br label %return

if.end46:                                         ; preds = %if.end35
  %handover_yank_instance47 = getelementptr inbounds nuw i8, ptr %call27, i64 120
  store i8 0, ptr %handover_yank_instance47, align 8
  %handover_yank_instance49 = getelementptr inbounds nuw i8, ptr %call.i2.i, i64 120
  store i8 %frombool, ptr %handover_yank_instance49, align 8
  tail call void @object_unparent(ptr noundef nonnull %call.i2.i) #13
  %call.i48 = tail call ptr @object_get_root() #13
  %call1.i49 = tail call ptr @container_get(ptr noundef %call.i48, ptr noundef nonnull @.str) #13
  %label52 = getelementptr inbounds nuw i8, ptr %call27, i64 96
  %14 = load ptr, ptr %label52, align 8
  %call53 = tail call ptr @object_property_add_child(ptr noundef %call1.i49, ptr noundef %14, ptr noundef nonnull %call27) #13
  tail call void @object_unref(ptr noundef nonnull %call27) #13
  %call54 = tail call noalias dereferenceable_or_null(8) ptr @g_malloc0_n(i64 noundef 1, i64 noundef 8) #17
  %call55 = tail call ptr @object_dynamic_cast(ptr noundef nonnull %call27, ptr noundef nonnull @.str.91) #13
  %tobool56.not = icmp eq ptr %call55, null
  br i1 %tobool56.not, label %return, label %if.then57

if.then57:                                        ; preds = %if.end46
  %filename = getelementptr inbounds nuw i8, ptr %call27, i64 104
  %15 = load ptr, ptr %filename, align 8
  %add.ptr = getelementptr i8, ptr %15, i64 4
  %call58 = tail call noalias ptr @g_strdup(ptr noundef %add.ptr) #13
  store ptr %call58, ptr %call54, align 8
  br label %return

return:                                           ; preds = %if.end46, %if.then57, %land.end, %if.end15, %if.end45, %if.then14, %if.then10, %if.then6, %if.then3, %if.then
  %retval.0 = phi ptr [ null, %if.then3 ], [ null, %if.then6 ], [ null, %if.end45 ], [ null, %if.then14 ], [ %call11, %if.then10 ], [ null, %if.then ], [ null, %if.end15 ], [ null, %land.end ], [ %call54, %if.then57 ], [ %call54, %if.end46 ]
  ret ptr %retval.0
}